(dp1
S'users'
p2
(lp3
(dp4
S'age'
p5
I17
sS'name'
p6
S'w21'
p7
sa(dp8
g5
I77
sg6
S'w71'
p9
sa(dp10
g5
I12
sg6
S'w86'
p11
sa(dp12
g5
I24
sg6
S'w81'
p13
sa(dp14
g5
I2
sg6
S'w42'
p15
sa(dp16
g5
I11
sg6
S'w69'
p17
sa(dp18
g5
I60
sg6
S'w92'
p19
sa(dp20
g5
I35
sg6
S'w2'
p21
sa(dp22
g5
I55
sg6
S'w65'
p23
sas.